target datalayout = "e-m:e-p270:32:32-p271:32:32-p272:64:64-i64:64-i128:128-f80:128-n8:16:32:64-S128"
target triple = "x86_64-pc-linux-gnu"

%struct.slurm_conf_t = type { i64, ptr, i16, ptr, ptr, ptr, ptr, ptr, i16, ptr, ptr, ptr, ptr, ptr, ptr, ptr, i16, ptr, ptr, ptr, ptr, i16, ptr, ptr, ptr, i64, ptr, ptr, ptr, ptr, i16, ptr, ptr, i16, i32, ptr, i32, ptr, i32, i32, ptr, ptr, i64, i64, ptr, i16, i16, ptr, i32, i32, ptr, i32, ptr, i32, i16, i16, i16, ptr, i16, i16, ptr, ptr, i32, i16, i16, ptr, i32, i16, ptr, ptr, ptr, ptr, i16, ptr, ptr, ptr, ptr, i32, ptr, ptr, ptr, ptr, i16, i16, ptr, i32, i32, i32, i16, i16, ptr, ptr, i16, ptr, ptr, i32, i32, i32, i32, i32, i64, i32, i32, i16, ptr, ptr, i32, ptr, ptr, ptr, i16, i32, ptr, ptr, i16, ptr, ptr, i32, i16, ptr, ptr, ptr, ptr, i32, i32, i16, i16, i32, ptr, i16, ptr, i32, i32, i32, i32, i32, i32, ptr, i16, ptr, ptr, i32, i16, ptr, i32, i16, i16, ptr, ptr, ptr, i16, ptr, ptr, ptr, ptr, i16, i16, ptr, i16, ptr, i16, ptr, i16, ptr, i16, ptr, ptr, ptr, ptr, i16, ptr, ptr, ptr, i32, ptr, i32, ptr, ptr, i16, ptr, ptr, i32, i16, ptr, ptr, i16, i16, ptr, i16, ptr, ptr, ptr, i32, ptr, i16, i16, ptr, ptr, ptr, ptr, ptr, ptr, ptr, ptr, i16, i32, i16, ptr, ptr, ptr, ptr, i32, ptr, ptr, ptr, i16, ptr, ptr, ptr, i16, ptr, i16, ptr, i16, i16, ptr }
%struct.job_record = type { i32, ptr, ptr, ptr, ptr, i16, i32, i32, i32, ptr, i32, ptr, ptr, i16, ptr, double, i64, ptr, ptr, ptr, ptr, ptr, ptr, i32, ptr, i32, i64, i64, i32, i32, ptr, i16, i64, i64, i8, i32, ptr, ptr, ptr, ptr, ptr, ptr, ptr, ptr, i32, ptr, ptr, i32, ptr, i32, ptr, i32, ptr, i32, ptr, ptr, ptr, ptr, ptr, ptr, i32, i16, i64, ptr, ptr, ptr, ptr, %struct.acct_policy_limit_set_t, i16, ptr, ptr, ptr, ptr, ptr, i32, ptr, ptr, ptr, ptr, ptr, i32, i32, ptr, ptr, ptr, i16, ptr, ptr, i8, ptr, ptr, i64, i64, i8, i32, i32, i8, i32, ptr, i32, i64, i32, ptr, ptr, ptr, i8, i16, i64, i32, ptr, ptr, ptr, ptr, ptr, i16, i32, ptr, ptr, ptr, ptr, i32, ptr, i32, i16, i64, ptr, i32, i32, ptr, i64, ptr, ptr, i64, i32, i32, i64, i32, i32, ptr, ptr, ptr, ptr, ptr, ptr, ptr, ptr, ptr, ptr, ptr, ptr, i32, ptr, i16, i16, i16, i16, ptr, i32, i32, i8, i64 }
%struct.acct_policy_limit_set_t = type { i16, i16, ptr }
%struct.job_node_select_t = type { ptr, ptr, i32, i32, i32, i32, i32, i8 }

@slurm_conf = external global %struct.slurm_conf_t, align 8

; Function Attrs: nounwind uwtable
define internal i32 @_select_nodes_base(ptr noundef %0) #0 {
  %2 = alloca i32, align 4
  %3 = alloca ptr, align 8
  store ptr %0, ptr %3, align 8
  %4 = load ptr, ptr %3, align 8
  %5 = getelementptr inbounds nuw %struct.job_node_select_t, ptr %4, i32 0, i32 1
  %6 = call i32 @job_limits_check(ptr noundef %5, i1 noundef zeroext false)
  %7 = load ptr, ptr %3, align 8
  %8 = getelementptr inbounds nuw %struct.job_node_select_t, ptr %7, i32 0, i32 4
  store i32 %6, ptr %8, align 8
  %9 = load ptr, ptr %3, align 8
  %10 = getelementptr inbounds nuw %struct.job_node_select_t, ptr %9, i32 0, i32 4
  %11 = load i32, ptr %10, align 8
  %12 = icmp ne i32 %11, 0
  br i1 %12, label %13, label %18

13:                                               ; preds = %1
  %14 = load i16, ptr getelementptr inbounds nuw (%struct.slurm_conf_t, ptr @slurm_conf, i32 0, i32 46), align 2
  %15 = zext i16 %14 to i32
  %16 = icmp eq i32 %15, 2
  br i1 %16, label %17, label %18

17:                                               ; preds = %13
  store i32 -1, ptr %2, align 4
  br label %184

18:                                               ; preds = %13, %1
  %19 = load ptr, ptr %3, align 8
  %20 = getelementptr inbounds nuw %struct.job_node_select_t, ptr %19, i32 0, i32 4
  %21 = load i32, ptr %20, align 8
  %22 = icmp ne i32 %21, 0
  br i1 %22, label %23, label %39

23:                                               ; preds = %18
  %24 = load i16, ptr getelementptr inbounds nuw (%struct.slurm_conf_t, ptr @slurm_conf, i32 0, i32 46), align 2
  %25 = zext i16 %24 to i32
  %26 = icmp eq i32 %25, 1
  br i1 %26, label %27, label %39

27:                                               ; preds = %23
  %28 = load ptr, ptr %3, align 8
  %29 = getelementptr inbounds nuw %struct.job_node_select_t, ptr %28, i32 0, i32 4
  %30 = load i32, ptr %29, align 8
  %31 = icmp ne i32 %30, 6
  br i1 %31, label %32, label %35

32:                                               ; preds = %27
  %33 = load ptr, ptr %3, align 8
  %34 = getelementptr inbounds nuw %struct.job_node_select_t, ptr %33, i32 0, i32 3
  store i32 2015, ptr %34, align 4
  store i32 0, ptr %2, align 4
  br label %184

35:                                               ; preds = %27
  %36 = load ptr, ptr %3, align 8
  %37 = getelementptr inbounds nuw %struct.job_node_select_t, ptr %36, i32 0, i32 3
  store i32 2101, ptr %37, align 4
  br label %38

38:                                               ; preds = %35
  br label %39

39:                                               ; preds = %38, %23, %18
  %40 = load ptr, ptr %3, align 8
  %41 = getelementptr inbounds nuw %struct.job_node_select_t, ptr %40, i32 0, i32 4
  %42 = load i32, ptr %41, align 8
  %43 = icmp eq i32 %42, 0
  br i1 %43, label %44, label %53

44:                                               ; preds = %39
  %45 = load ptr, ptr %3, align 8
  %46 = load ptr, ptr %3, align 8
  %47 = getelementptr inbounds nuw %struct.job_node_select_t, ptr %46, i32 0, i32 7
  %48 = load i8, ptr %47, align 4, !range !8, !noundef !9
  %49 = trunc i8 %48 to i1
  %50 = call i32 @select_nodes(ptr noundef %45, i1 noundef zeroext %49, i1 noundef zeroext true, i32 noundef 2)
  %51 = load ptr, ptr %3, align 8
  %52 = getelementptr inbounds nuw %struct.job_node_select_t, ptr %51, i32 0, i32 2
  store i32 %50, ptr %52, align 8
  br label %71

53:                                               ; preds = %39
  %54 = load ptr, ptr %3, align 8
  %55 = call i32 @select_nodes(ptr noundef %54, i1 noundef zeroext true, i1 noundef zeroext true, i32 noundef 2)
  %56 = load ptr, ptr %3, align 8
  %57 = getelementptr inbounds nuw %struct.job_node_select_t, ptr %56, i32 0, i32 2
  store i32 %55, ptr %57, align 8
  %58 = load ptr, ptr %3, align 8
  %59 = getelementptr inbounds nuw %struct.job_node_select_t, ptr %58, i32 0, i32 2
  %60 = load i32, ptr %59, align 8
  %61 = icmp eq i32 %60, 0
  br i1 %61, label %62, label %70

62:                                               ; preds = %53
  %63 = load ptr, ptr %3, align 8
  %64 = getelementptr inbounds nuw %struct.job_node_select_t, ptr %63, i32 0, i32 4
  %65 = load i32, ptr %64, align 8
  %66 = icmp eq i32 %65, 6
  br i1 %66, label %67, label %70

67:                                               ; preds = %62
  %68 = load ptr, ptr %3, align 8
  %69 = getelementptr inbounds nuw %struct.job_node_select_t, ptr %68, i32 0, i32 2
  store i32 2101, ptr %69, align 8
  br label %70

70:                                               ; preds = %67, %62, %53
  br label %71

71:                                               ; preds = %70, %44
  %72 = load ptr, ptr %3, align 8
  %73 = getelementptr inbounds nuw %struct.job_node_select_t, ptr %72, i32 0, i32 2
  %74 = load i32, ptr %73, align 8
  %75 = icmp eq i32 %74, 2015
  br i1 %75, label %76, label %86

76:                                               ; preds = %71
  %77 = load i16, ptr getelementptr inbounds nuw (%struct.slurm_conf_t, ptr @slurm_conf, i32 0, i32 46), align 2
  %78 = zext i16 %77 to i32
  %79 = icmp eq i32 %78, 1
  br i1 %79, label %80, label %86

80:                                               ; preds = %76
  %81 = load ptr, ptr %3, align 8
  %82 = getelementptr inbounds nuw %struct.job_node_select_t, ptr %81, i32 0, i32 2
  %83 = load i32, ptr %82, align 8
  %84 = load ptr, ptr %3, align 8
  %85 = getelementptr inbounds nuw %struct.job_node_select_t, ptr %84, i32 0, i32 3
  store i32 %83, ptr %85, align 4
  store i32 0, ptr %2, align 4
  br label %184

86:                                               ; preds = %76, %71
  %87 = load ptr, ptr %3, align 8
  %88 = getelementptr inbounds nuw %struct.job_node_select_t, ptr %87, i32 0, i32 2
  %89 = load i32, ptr %88, align 8
  %90 = icmp ne i32 %89, 2014
  br i1 %90, label %91, label %136

91:                                               ; preds = %86
  %92 = load ptr, ptr %3, align 8
  %93 = getelementptr inbounds nuw %struct.job_node_select_t, ptr %92, i32 0, i32 2
  %94 = load i32, ptr %93, align 8
  %95 = icmp ne i32 %94, 2015
  br i1 %95, label %96, label %136

96:                                               ; preds = %91
  %97 = load ptr, ptr %3, align 8
  %98 = getelementptr inbounds nuw %struct.job_node_select_t, ptr %97, i32 0, i32 2
  %99 = load i32, ptr %98, align 8
  %100 = icmp ne i32 %99, 2178
  br i1 %100, label %101, label %136

101:                                              ; preds = %96
  %102 = load ptr, ptr %3, align 8
  %103 = getelementptr inbounds nuw %struct.job_node_select_t, ptr %102, i32 0, i32 2
  %104 = load i32, ptr %103, align 8
  %105 = icmp ne i32 %104, 2055
  br i1 %105, label %106, label %136

106:                                              ; preds = %101
  %107 = load ptr, ptr %3, align 8
  %108 = getelementptr inbounds nuw %struct.job_node_select_t, ptr %107, i32 0, i32 2
  %109 = load i32, ptr %108, align 8
  %110 = icmp ne i32 %109, 2016
  br i1 %110, label %111, label %136

111:                                              ; preds = %106
  %112 = load ptr, ptr %3, align 8
  %113 = getelementptr inbounds nuw %struct.job_node_select_t, ptr %112, i32 0, i32 2
  %114 = load i32, ptr %113, align 8
  %115 = load ptr, ptr %3, align 8
  %116 = getelementptr inbounds nuw %struct.job_node_select_t, ptr %115, i32 0, i32 3
  store i32 %114, ptr %116, align 4
  %117 = load i16, ptr getelementptr inbounds nuw (%struct.slurm_conf_t, ptr @slurm_conf, i32 0, i32 46), align 2
  %118 = zext i16 %117 to i32
  %119 = icmp eq i32 %118, 2
  br i1 %119, label %134, label %120

120:                                              ; preds = %111
  %121 = load i16, ptr getelementptr inbounds nuw (%struct.slurm_conf_t, ptr @slurm_conf, i32 0, i32 46), align 2
  %122 = zext i16 %121 to i32
  %123 = icmp eq i32 %122, 0
  br i1 %123, label %134, label %124

124:                                              ; preds = %120
  %125 = load ptr, ptr %3, align 8
  %126 = getelementptr inbounds nuw %struct.job_node_select_t, ptr %125, i32 0, i32 7
  %127 = load i8, ptr %126, align 4, !range !8, !noundef !9
  %128 = trunc i8 %127 to i1
  br i1 %128, label %135, label %129

129:                                              ; preds = %124
  %130 = load ptr, ptr %3, align 8
  %131 = getelementptr inbounds nuw %struct.job_node_select_t, ptr %130, i32 0, i32 4
  %132 = load i32, ptr %131, align 8
  %133 = icmp eq i32 %132, 0
  br i1 %133, label %134, label %135

134:                                              ; preds = %129, %120, %111
  store i32 0, ptr %2, align 4
  br label %184

135:                                              ; preds = %129, %124
  br label %136

136:                                              ; preds = %135, %106, %101, %96, %91, %86
  %137 = load ptr, ptr %3, align 8
  %138 = getelementptr inbounds nuw %struct.job_node_select_t, ptr %137, i32 0, i32 2
  %139 = load i32, ptr %138, align 8
  %140 = icmp eq i32 %139, 2016
  br i1 %140, label %151, label %141

141:                                              ; preds = %136
  %142 = load ptr, ptr %3, align 8
  %143 = getelementptr inbounds nuw %struct.job_node_select_t, ptr %142, i32 0, i32 2
  %144 = load i32, ptr %143, align 8
  %145 = icmp eq i32 %144, 2055
  br i1 %145, label %151, label %146

146:                                              ; preds = %141
  %147 = load ptr, ptr %3, align 8
  %148 = getelementptr inbounds nuw %struct.job_node_select_t, ptr %147, i32 0, i32 2
  %149 = load i32, ptr %148, align 8
  %150 = icmp eq i32 %149, 2059
  br i1 %150, label %151, label %168

151:                                              ; preds = %146, %141, %136
  %152 = load ptr, ptr %3, align 8
  %153 = getelementptr inbounds nuw %struct.job_node_select_t, ptr %152, i32 0, i32 3
  %154 = load i32, ptr %153, align 4
  %155 = icmp eq i32 %154, -1
  br i1 %155, label %156, label %168

156:                                              ; preds = %151
  %157 = load ptr, ptr %3, align 8
  %158 = getelementptr inbounds nuw %struct.job_node_select_t, ptr %157, i32 0, i32 7
  %159 = load i8, ptr %158, align 4, !range !8, !noundef !9
  %160 = trunc i8 %159 to i1
  br i1 %160, label %161, label %162

161:                                              ; preds = %156
  store i32 0, ptr %2, align 4
  br label %184

162:                                              ; preds = %156
  %163 = load ptr, ptr %3, align 8
  %164 = getelementptr inbounds nuw %struct.job_node_select_t, ptr %163, i32 0, i32 2
  %165 = load i32, ptr %164, align 8
  %166 = load ptr, ptr %3, align 8
  %167 = getelementptr inbounds nuw %struct.job_node_select_t, ptr %166, i32 0, i32 3
  store i32 %165, ptr %167, align 4
  br label %168

168:                                              ; preds = %162, %151, %146
  %169 = load ptr, ptr %3, align 8
  %170 = getelementptr inbounds nuw %struct.job_node_select_t, ptr %169, i32 0, i32 1
  %171 = load ptr, ptr %170, align 8
  %172 = getelementptr inbounds nuw %struct.job_record, ptr %171, i32 0, i32 93
  %173 = load i8, ptr %172, align 8, !range !8, !noundef !9
  %174 = trunc i8 %173 to i1
  br i1 %174, label %175, label %183

175:                                              ; preds = %168
  %176 = load ptr, ptr %3, align 8
  %177 = getelementptr inbounds nuw %struct.job_node_select_t, ptr %176, i32 0, i32 2
  %178 = load i32, ptr %177, align 8
  %179 = icmp ne i32 %178, 2016
  br i1 %179, label %180, label %183

180:                                              ; preds = %175
  %181 = load ptr, ptr %3, align 8
  %182 = getelementptr inbounds nuw %struct.job_node_select_t, ptr %181, i32 0, i32 7
  store i8 1, ptr %182, align 4
  br label %183

183:                                              ; preds = %180, %175, %168
  store i32 -1, ptr %2, align 4
  br label %184

184:                                              ; preds = %183, %161, %134, %80, %32, %17
  %185 = load i32, ptr %2, align 4
  ret i32 %185
}