; Function Attrs: nounwind uwtable
define internal fastcc range(i32 -1, 1) i32 @_select_nodes_base(ptr noundef %0) unnamed_addr #0 {
  %2 = getelementptr inbounds nuw i8, ptr %0, i64 8
  %3 = tail call i32 @job_limits_check(ptr noundef nonnull %2, i1 noundef zeroext false)
  %4 = getelementptr inbounds nuw i8, ptr %0, i64 24
  store i32 %3, ptr %4, align 8
  %5 = icmp ne i32 %3, 0
  %6 = load i16, ptr getelementptr inbounds nuw (i8, ptr @slurm_conf, i64 346), align 2
  %7 = icmp eq i16 %6, 2
  %or.cond = select i1 %5, i1 %7, i1 false
  br i1 %or.cond, label %66, label %8

8:                                                ; preds = %1
  %9 = icmp eq i16 %6, 1
  %or.cond5 = select i1 %5, i1 %9, i1 false
  br i1 %or.cond5, label %10, label %13

10:                                               ; preds = %8
  %.not = icmp eq i32 %3, 6
  %11 = getelementptr inbounds nuw i8, ptr %0, i64 20
  br i1 %.not, label %.thread, label %12

12:                                               ; preds = %10
  store i32 2015, ptr %11, align 4
  br label %66

.thread:                                          ; preds = %10
  store i32 2101, ptr %11, align 4
  br label %21

13:                                               ; preds = %8
  %14 = icmp eq i32 %3, 0
  br i1 %14, label %15, label %21

15:                                               ; preds = %13
  %16 = getelementptr inbounds nuw i8, ptr %0, i64 36
  %17 = load i8, ptr %16, align 4, !range !11, !noundef !12
  %18 = trunc nuw i8 %17 to i1
  %19 = tail call i32 @select_nodes(ptr noundef nonnull %0, i1 noundef zeroext %18, i1 noundef zeroext true, i32 noundef 2) #27
  %20 = getelementptr inbounds nuw i8, ptr %0, i64 16
  store i32 %19, ptr %20, align 8
  br label %29

21:                                               ; preds = %.thread, %13
  %22 = tail call i32 @select_nodes(ptr noundef nonnull %0, i1 noundef zeroext true, i1 noundef zeroext true, i32 noundef 2) #27
  %23 = getelementptr inbounds nuw i8, ptr %0, i64 16
  store i32 %22, ptr %23, align 8
  %24 = icmp eq i32 %22, 0
  br i1 %24, label %25, label %29

25:                                               ; preds = %21
  %26 = load i32, ptr %4, align 8
  %27 = icmp eq i32 %26, 6
  br i1 %27, label %28, label %.thread60.thread

28:                                               ; preds = %25
  store i32 2101, ptr %23, align 8
  br label %.thread60.thread

29:                                               ; preds = %21, %15
  %30 = phi i32 [ %22, %21 ], [ %19, %15 ]
  %31 = icmp eq i32 %30, 2015
  %32 = load i16, ptr getelementptr inbounds nuw (i8, ptr @slurm_conf, i64 346), align 2
  %33 = icmp eq i16 %32, 1
  %or.cond8 = select i1 %31, i1 %33, i1 false
  br i1 %or.cond8, label %34, label %.thread60

34:                                               ; preds = %29
  %35 = getelementptr inbounds nuw i8, ptr %0, i64 20
  store i32 2015, ptr %35, align 4
  br label %66

.thread60:                                        ; preds = %29
  switch i32 %30, label %.thread60.thread [
    i32 2016, label %48
    i32 2055, label %48
    i32 2014, label %58
    i32 2015, label %58
    i32 2178, label %58
  ]

.thread60.thread:                                 ; preds = %25, %28, %.thread60
  %36 = phi i32 [ %30, %.thread60 ], [ 0, %25 ], [ 2101, %28 ]
  %37 = getelementptr inbounds nuw i8, ptr %0, i64 20
  store i32 %36, ptr %37, align 4
  %38 = load i16, ptr getelementptr inbounds nuw (i8, ptr @slurm_conf, i64 346), align 2
  %39 = and i16 %38, -3
  %or.cond11 = icmp eq i16 %39, 0
  br i1 %or.cond11, label %66, label %40

40:                                               ; preds = %.thread60.thread
  %41 = getelementptr inbounds nuw i8, ptr %0, i64 36
  %42 = load i8, ptr %41, align 4, !range !11, !noundef !12
  %43 = trunc nuw i8 %42 to i1
  br i1 %43, label %47, label %44

44:                                               ; preds = %40
  %45 = load i32, ptr %4, align 8
  %46 = icmp eq i32 %45, 0
  br i1 %46, label %66, label %47

47:                                               ; preds = %40, %44
  switch i32 %36, label %58 [
    i32 2016, label %48
    i32 2055, label %48
    i32 2059, label %48
  ]

48:                                               ; preds = %.thread60, %.thread60, %47, %47, %47
  %49 = phi i32 [ %30, %.thread60 ], [ %30, %.thread60 ], [ %36, %47 ], [ %36, %47 ], [ %36, %47 ]
  %50 = getelementptr inbounds nuw i8, ptr %0, i64 20
  %51 = load i32, ptr %50, align 4
  %52 = icmp eq i32 %51, -1
  br i1 %52, label %53, label %58

53:                                               ; preds = %48
  %54 = getelementptr inbounds nuw i8, ptr %0, i64 36
  %55 = load i8, ptr %54, align 4, !range !11, !noundef !12
  %56 = trunc nuw i8 %55 to i1
  br i1 %56, label %66, label %57

57:                                               ; preds = %53
  store i32 %49, ptr %50, align 4
  br label %58

58:                                               ; preds = %.thread60, %.thread60, %.thread60, %47, %57, %48
  %59 = phi i32 [ %30, %.thread60 ], [ %30, %.thread60 ], [ %30, %.thread60 ], [ %36, %47 ], [ %49, %57 ], [ %49, %48 ]
  %60 = load ptr, ptr %2, align 8
  %61 = getelementptr inbounds nuw i8, ptr %60, i64 704
  %62 = load i8, ptr %61, align 8, !range !11, !noundef !12
  %63 = trunc nuw i8 %62 to i1
  %.not57 = icmp ne i32 %59, 2016
  %or.cond59.not = and i1 %.not57, %63
  br i1 %or.cond59.not, label %64, label %66

64:                                               ; preds = %58
  %65 = getelementptr inbounds nuw i8, ptr %0, i64 36
  store i8 1, ptr %65, align 4
  br label %66

66:                                               ; preds = %58, %64, %53, %.thread60.thread, %44, %1, %34, %12
  %.0 = phi i32 [ 0, %12 ], [ 0, %34 ], [ -1, %1 ], [ 0, %44 ], [ 0, %.thread60.thread ], [ 0, %53 ], [ -1, %64 ], [ -1, %58 ]
  ret i32 %.0
}